target datalayout = "e-m:e-p270:32:32-p271:32:32-p272:64:64-i64:64-i128:128-f80:128-n8:16:32:64-S128"
target triple = "x86_64-pc-linux-gnu"

@hf_gsm_a_dtap_ack_element = internal global i32 0, align 4
@.str.953 = private unnamed_addr constant [34 x i8] c"No acknowledgment element present\00", align 1

; Function Attrs: null_pointer_is_valid sspstrong uwtable
define internal zeroext i16 @de_tp_ack(ptr noundef %0, ptr noundef %1, ptr noundef %2, i32 noundef %3, i32 noundef %4, ptr noundef %5, i32 noundef %6) #1 {
  %8 = alloca ptr, align 8
  %9 = alloca ptr, align 8
  %10 = alloca ptr, align 8
  %11 = alloca i32, align 4
  %12 = alloca i32, align 4
  %13 = alloca ptr, align 8
  %14 = alloca i32, align 4
  %15 = alloca i32, align 4
  %16 = alloca i8, align 1
  store ptr %0, ptr %8, align 8
  store ptr %1, ptr %9, align 8
  store ptr %2, ptr %10, align 8
  store i32 %3, ptr %11, align 4
  store i32 %4, ptr %12, align 4
  store ptr %5, ptr %13, align 8
  store i32 %6, ptr %14, align 4
  call void @llvm.lifetime.start.p0(i64 4, ptr %15) #7
  call void @llvm.lifetime.start.p0(i64 1, ptr %16) #7
  %17 = load i32, ptr %11, align 4
  store i32 %17, ptr %15, align 4
  %18 = load ptr, ptr %8, align 8
  %19 = load i32, ptr %15, align 4
  %20 = call zeroext i8 @tvb_get_uint8(ptr noundef %18, i32 noundef %19)
  store i8 %20, ptr %16, align 1
  %21 = load i8, ptr %16, align 1
  %22 = zext i8 %21 to i32
  %23 = and i32 %22, 240
  %24 = icmp eq i32 %23, 128
  br i1 %24, label %25, label %34

25:                                               ; preds = %7
  %26 = load ptr, ptr %9, align 8
  %27 = load i32, ptr @hf_gsm_a_dtap_ack_element, align 4
  %28 = load ptr, ptr %8, align 8
  %29 = load i32, ptr %15, align 4
  %30 = load i8, ptr %16, align 1
  %31 = zext i8 %30 to i32
  %32 = and i32 %31, 1
  %33 = call ptr @proto_tree_add_uint(ptr noundef %26, i32 noundef %27, ptr noundef %28, i32 noundef %29, i32 noundef 1, i32 noundef %32)
  br label %40

34:                                               ; preds = %7
  %35 = load ptr, ptr %9, align 8
  %36 = load i32, ptr @hf_gsm_a_dtap_ack_element, align 4
  %37 = load ptr, ptr %8, align 8
  %38 = load i32, ptr %15, align 4
  %39 = call ptr (ptr, i32, ptr, i32, i32, i32, ptr, ...) @proto_tree_add_uint_format_value(ptr noundef %35, i32 noundef %36, ptr noundef %37, i32 noundef %38, i32 noundef 1, i32 noundef 255, ptr noundef @.str.953)
  br label %40

40:                                               ; preds = %34, %25
  %41 = load i32, ptr %15, align 4
  %42 = add i32 %41, 1
  store i32 %42, ptr %15, align 4
  %43 = load i32, ptr %15, align 4
  %44 = load i32, ptr %11, align 4
  %45 = sub i32 %43, %44
  %46 = trunc i32 %45 to i16
  call void @llvm.lifetime.end.p0(i64 1, ptr %16) #7
  call void @llvm.lifetime.end.p0(i64 4, ptr %15) #7
  ret i16 %46
}