; Function Attrs: null_pointer_is_valid sspstrong uwtable
define internal noundef zeroext i16 @de_tp_ack(ptr noundef %0, ptr noundef %1, ptr readnone captures(none) %2, i32 noundef %3, i32 %4, ptr readnone captures(none) %5, i32 %6) #1 {
  %8 = tail call zeroext i8 @tvb_get_uint8(ptr noundef %0, i32 noundef %3)
  %9 = zext i8 %8 to i32
  %10 = and i32 %9, 240
  %11 = icmp eq i32 %10, 128
  %12 = load i32, ptr @hf_gsm_a_dtap_ack_element, align 4
  br i1 %11, label %13, label %16

13:                                               ; preds = %7
  %14 = and i32 %9, 1
  %15 = tail call ptr @proto_tree_add_uint(ptr noundef %1, i32 noundef %12, ptr noundef %0, i32 noundef %3, i32 noundef 1, i32 noundef %14)
  br label %18

16:                                               ; preds = %7
  %17 = tail call ptr (ptr, i32, ptr, i32, i32, i32, ptr, ...) @proto_tree_add_uint_format_value(ptr noundef %1, i32 noundef %12, ptr noundef %0, i32 noundef %3, i32 noundef 1, i32 noundef 255, ptr noundef nonnull @.str.953)
  br label %18

18:                                               ; preds = %16, %13
  ret i16 1
}